target datalayout = "e-m:e-p270:32:32-p271:32:32-p272:64:64-i64:64-i128:128-f80:128-n8:16:32:64-S128"
target triple = "x86_64-pc-linux-gnu"

%"class.rocksdb::(anonymous namespace)::MockWritableFile" = type { %"class.rocksdb::FSWritableFile.base", ptr, i8, ptr }
%"class.rocksdb::FSWritableFile.base" = type <{ ptr, i64, i64, i32, i32, i8 }>

; Function Attrs: mustprogress nounwind uwtable
define linkonce_odr void @_ZN7rocksdb14FSWritableFileD2Ev(ptr noundef nonnull align 8 dereferenceable(33) %0) unnamed_addr #2 comdat align 2 {
  %2 = alloca ptr, align 8
  store ptr %0, ptr %2, align 8, !tbaa !220
  ret void
}

; Function Attrs: mustprogress nounwind uwtable
define internal void @_ZN7rocksdb12_GLOBAL__N_116MockWritableFileD2Ev(ptr noundef nonnull align 8 dereferenceable(64) %0) unnamed_addr #2 align 2 personality ptr @__gxx_personality_v0 {
  %2 = alloca ptr, align 8
  store ptr %0, ptr %2, align 8, !tbaa !226
  %3 = load ptr, ptr %2, align 8
  store ptr getelementptr inbounds inrange(-16, 208) ({ [28 x ptr] }, ptr @_ZTVN7rocksdb12_GLOBAL__N_116MockWritableFileE, i32 0, i32 0, i32 2), ptr %3, align 8, !tbaa !75
  %4 = getelementptr inbounds nuw %"class.rocksdb::(anonymous namespace)::MockWritableFile", ptr %3, i32 0, i32 1
  %5 = load ptr, ptr %4, align 8, !tbaa !228
  invoke void @_ZN7rocksdb7MemFile5UnrefEv(ptr noundef nonnull align 8 dereferenceable(152) %5)
          to label %6 unwind label %7

6:                                                ; preds = %1
  call void @_ZN7rocksdb14FSWritableFileD2Ev(ptr noundef nonnull align 8 dereferenceable(33) %3) #5
  ret void

7:                                                ; preds = %1
  %8 = landingpad { ptr, i32 }
          catch ptr null
  %9 = extractvalue { ptr, i32 } %8, 0
  call void @__clang_call_terminate(ptr %9) #23
  unreachable
}